target datalayout = "e-m:e-p270:32:32-p271:32:32-p272:64:64-i64:64-i128:128-f80:128-n8:16:32:64-S128"
target triple = "x86_64-pc-linux-gnu"

%struct.mpd_context_t = type { i64, i64, i64, i32, i32, i32, i32, i32, i32 }

; Function Attrs: nounwind uwtable
define hidden i32 @mpd_ieee_context(ptr noundef %0, i32 noundef %1) #0 {
  %3 = alloca i32, align 4
  %4 = alloca ptr, align 8
  %5 = alloca i32, align 4
  store ptr %0, ptr %4, align 8, !tbaa !3
  store i32 %1, ptr %5, align 4, !tbaa !10
  %6 = load i32, ptr %5, align 4, !tbaa !10
  %7 = icmp sle i32 %6, 0
  br i1 %7, label %15, label %8

8:                                                ; preds = %2
  %9 = load i32, ptr %5, align 4, !tbaa !10
  %10 = icmp sgt i32 %9, 512
  br i1 %10, label %15, label %11

11:                                               ; preds = %8
  %12 = load i32, ptr %5, align 4, !tbaa !10
  %13 = srem i32 %12, 32
  %14 = icmp ne i32 %13, 0
  br i1 %14, label %15, label %16

15:                                               ; preds = %11, %8, %2
  store i32 -1, ptr %3, align 4
  br label %50

16:                                               ; preds = %11
  %17 = load i32, ptr %5, align 4, !tbaa !10
  %18 = sdiv i32 %17, 32
  %19 = mul i32 9, %18
  %20 = sub i32 %19, 2
  %21 = sext i32 %20 to i64
  %22 = load ptr, ptr %4, align 8, !tbaa !3
  %23 = getelementptr inbounds nuw %struct.mpd_context_t, ptr %22, i32 0, i32 0
  store i64 %21, ptr %23, align 8, !tbaa !14
  %24 = load i32, ptr %5, align 4, !tbaa !10
  %25 = sdiv i32 %24, 16
  %26 = add i32 %25, 3
  %27 = zext i32 %26 to i64
  %28 = shl i64 1, %27
  %29 = mul i64 3, %28
  %30 = load ptr, ptr %4, align 8, !tbaa !3
  %31 = getelementptr inbounds nuw %struct.mpd_context_t, ptr %30, i32 0, i32 1
  store i64 %29, ptr %31, align 8, !tbaa !16
  %32 = load ptr, ptr %4, align 8, !tbaa !3
  %33 = getelementptr inbounds nuw %struct.mpd_context_t, ptr %32, i32 0, i32 1
  %34 = load i64, ptr %33, align 8, !tbaa !16
  %35 = sub i64 1, %34
  %36 = load ptr, ptr %4, align 8, !tbaa !3
  %37 = getelementptr inbounds nuw %struct.mpd_context_t, ptr %36, i32 0, i32 2
  store i64 %35, ptr %37, align 8, !tbaa !17
  %38 = load ptr, ptr %4, align 8, !tbaa !3
  %39 = getelementptr inbounds nuw %struct.mpd_context_t, ptr %38, i32 0, i32 6
  store i32 6, ptr %39, align 4, !tbaa !18
  %40 = load ptr, ptr %4, align 8, !tbaa !3
  %41 = getelementptr inbounds nuw %struct.mpd_context_t, ptr %40, i32 0, i32 3
  store i32 0, ptr %41, align 8, !tbaa !19
  %42 = load ptr, ptr %4, align 8, !tbaa !3
  %43 = getelementptr inbounds nuw %struct.mpd_context_t, ptr %42, i32 0, i32 4
  store i32 0, ptr %43, align 4, !tbaa !20
  %44 = load ptr, ptr %4, align 8, !tbaa !3
  %45 = getelementptr inbounds nuw %struct.mpd_context_t, ptr %44, i32 0, i32 5
  store i32 0, ptr %45, align 8, !tbaa !21
  %46 = load ptr, ptr %4, align 8, !tbaa !3
  %47 = getelementptr inbounds nuw %struct.mpd_context_t, ptr %46, i32 0, i32 7
  store i32 1, ptr %47, align 8, !tbaa !22
  %48 = load ptr, ptr %4, align 8, !tbaa !3
  %49 = getelementptr inbounds nuw %struct.mpd_context_t, ptr %48, i32 0, i32 8
  store i32 1, ptr %49, align 4, !tbaa !23
  store i32 0, ptr %3, align 4
  br label %50

50:                                               ; preds = %16, %15
  %51 = load i32, ptr %3, align 4
  ret i32 %51
}