; Function Attrs: mustprogress nofree norecurse nosync nounwind willreturn memory(argmem: write) uwtable
define hidden range(i32 -1, 1) i32 @mpd_ieee_context(ptr noundef writeonly captures(none) %0, i32 noundef %1) local_unnamed_addr #5 {
  %3 = add i32 %1, -1
  %or.cond = icmp ult i32 %3, 512
  %4 = and i32 %1, 31
  %.not = icmp eq i32 %4, 0
  %or.cond17 = and i1 %or.cond, %.not
  br i1 %or.cond17, label %5, label %23

5:                                                ; preds = %2
  %6 = lshr exact i32 %1, 5
  %7 = mul nuw nsw i32 %6, 9
  %8 = add nsw i32 %7, -2
  %9 = sext i32 %8 to i64
  store i64 %9, ptr %0, align 8, !tbaa !10
  %10 = lshr exact i32 %1, 4
  %11 = add nuw nsw i32 %10, 3
  %12 = zext nneg i32 %11 to i64
  %13 = shl nuw nsw i64 3, %12
  %14 = getelementptr inbounds nuw i8, ptr %0, i64 8
  store i64 %13, ptr %14, align 8, !tbaa !13
  %15 = sub nsw i64 1, %13
  %16 = getelementptr inbounds nuw i8, ptr %0, i64 16
  store i64 %15, ptr %16, align 8, !tbaa !14
  %17 = getelementptr inbounds nuw i8, ptr %0, i64 36
  store i32 6, ptr %17, align 4, !tbaa !15
  %18 = getelementptr inbounds nuw i8, ptr %0, i64 24
  store i32 0, ptr %18, align 8, !tbaa !16
  %19 = getelementptr inbounds nuw i8, ptr %0, i64 28
  store i32 0, ptr %19, align 4, !tbaa !17
  %20 = getelementptr inbounds nuw i8, ptr %0, i64 32
  store i32 0, ptr %20, align 8, !tbaa !18
  %21 = getelementptr inbounds nuw i8, ptr %0, i64 40
  store i32 1, ptr %21, align 8, !tbaa !19
  %22 = getelementptr inbounds nuw i8, ptr %0, i64 44
  store i32 1, ptr %22, align 4, !tbaa !20
  br label %23

23:                                               ; preds = %2, %5
  %.0 = phi i32 [ 0, %5 ], [ -1, %2 ]
  ret i32 %.0
}